target datalayout = "e-m:e-p270:32:32-p271:32:32-p272:64:64-i64:64-i128:128-f80:128-n8:16:32:64-S128"
target triple = "x86_64-pc-linux-gnu"

%struct.Vec_Str_t_ = type { i32, i32, ptr }

@.str.2 = private unnamed_addr constant [7 x i8] c"proved\00", align 1
@.str.3 = private unnamed_addr constant [7 x i8] c"failed\00", align 1

; Function Attrs: nounwind uwtable
define internal void @Vec_StrFree(ptr noundef %0) #0 {
  %2 = alloca ptr, align 8
  store ptr %0, ptr %2, align 8
  %3 = load ptr, ptr %2, align 8
  %4 = getelementptr inbounds %struct.Vec_Str_t_, ptr %3, i32 0, i32 2
  %5 = load ptr, ptr %4, align 8
  %6 = icmp ne ptr %5, null
  br i1 %6, label %7, label %13

7:                                                ; preds = %1
  %8 = load ptr, ptr %2, align 8
  %9 = getelementptr inbounds %struct.Vec_Str_t_, ptr %8, i32 0, i32 2
  %10 = load ptr, ptr %9, align 8
  call void @free(ptr noundef %10) #10
  %11 = load ptr, ptr %2, align 8
  %12 = getelementptr inbounds %struct.Vec_Str_t_, ptr %11, i32 0, i32 2
  store ptr null, ptr %12, align 8
  br label %14

13:                                               ; preds = %1
  br label %14

14:                                               ; preds = %13, %7
  %15 = load ptr, ptr %2, align 8
  %16 = icmp ne ptr %15, null
  br i1 %16, label %17, label %19

17:                                               ; preds = %14
  %18 = load ptr, ptr %2, align 8
  call void @free(ptr noundef %18) #10
  store ptr null, ptr %2, align 8
  br label %20

19:                                               ; preds = %14
  br label %20

20:                                               ; preds = %19, %17
  ret void
}

; Function Attrs: nounwind uwtable
define internal ptr @Vec_StrArray(ptr noundef %0) #0 {
  %2 = alloca ptr, align 8
  store ptr %0, ptr %2, align 8
  %3 = load ptr, ptr %2, align 8
  %4 = getelementptr inbounds %struct.Vec_Str_t_, ptr %3, i32 0, i32 2
  %5 = load ptr, ptr %4, align 8
  ret ptr %5
}

; Function Attrs: nounwind uwtable
define i32 @Abc_ManReadStatus(ptr noundef %0, ptr noundef %1) #0 {
  %3 = alloca i32, align 4
  %4 = alloca ptr, align 8
  %5 = alloca ptr, align 8
  %6 = alloca i32, align 4
  %7 = alloca ptr, align 8
  %8 = alloca ptr, align 8
  store ptr %0, ptr %4, align 8
  store ptr %1, ptr %5, align 8
  store i32 -1, ptr %6, align 4
  %9 = load ptr, ptr %4, align 8
  %10 = call ptr @Abc_ManReadFile(ptr noundef %9)
  store ptr %10, ptr %7, align 8
  %11 = load ptr, ptr %7, align 8
  %12 = icmp eq ptr %11, null
  br i1 %12, label %13, label %14

13:                                               ; preds = %2
  store i32 -1, ptr %3, align 4
  br label %39

14:                                               ; preds = %2
  %15 = load ptr, ptr %7, align 8
  %16 = call ptr @Vec_StrArray(ptr noundef %15)
  store ptr %16, ptr %8, align 8
  %17 = load ptr, ptr %8, align 8
  %18 = load ptr, ptr %5, align 8
  %19 = call ptr @strstr(ptr noundef %17, ptr noundef %18) #8
  store ptr %19, ptr %8, align 8
  %20 = load ptr, ptr %8, align 8
  %21 = icmp ne ptr %20, null
  br i1 %21, label %22, label %36

22:                                               ; preds = %14
  %23 = load ptr, ptr %8, align 8
  %24 = getelementptr inbounds i8, ptr %23, i64 8
  %25 = call i32 @strncmp(ptr noundef %24, ptr noundef @.str.2, i64 noundef 6) #8
  %26 = icmp eq i32 %25, 0
  br i1 %26, label %27, label %28

27:                                               ; preds = %22
  store i32 1, ptr %6, align 4
  br label %35

28:                                               ; preds = %22
  %29 = load ptr, ptr %8, align 8
  %30 = getelementptr inbounds i8, ptr %29, i64 8
  %31 = call i32 @strncmp(ptr noundef %30, ptr noundef @.str.3, i64 noundef 6) #8
  %32 = icmp eq i32 %31, 0
  br i1 %32, label %33, label %34

33:                                               ; preds = %28
  store i32 0, ptr %6, align 4
  br label %34

34:                                               ; preds = %33, %28
  br label %35

35:                                               ; preds = %34, %27
  br label %36

36:                                               ; preds = %35, %14
  %37 = load ptr, ptr %7, align 8
  call void @Vec_StrFree(ptr noundef %37)
  %38 = load i32, ptr %6, align 4
  store i32 %38, ptr %3, align 4
  br label %39

39:                                               ; preds = %36, %13
  %40 = load i32, ptr %3, align 4
  ret i32 %40
}