; Function Attrs: nounwind uwtable
define range(i32 -1, 2) i32 @Abc_ManReadStatus(ptr noundef %0, ptr noundef readonly captures(none) %1) local_unnamed_addr #2 {
  %3 = tail call ptr @Abc_ManReadFile(ptr noundef %0)
  %4 = icmp eq ptr %3, null
  br i1 %4, label %15, label %5

5:                                                ; preds = %2
  %6 = getelementptr i8, ptr %3, i64 8
  %.val = load ptr, ptr %6, align 8
  %7 = tail call ptr @strstr(ptr noundef nonnull dereferenceable(1) %.val, ptr noundef nonnull dereferenceable(1) %1) #13
  %.not = icmp eq ptr %7, null
  br i1 %.not, label %Vec_StrFree.exit, label %8

8:                                                ; preds = %5
  %9 = getelementptr inbounds nuw i8, ptr %7, i64 8
  %10 = tail call i32 @strncmp(ptr noundef nonnull dereferenceable(1) %9, ptr noundef nonnull dereferenceable(7) @.str.2, i64 noundef 6) #13
  %11 = icmp eq i32 %10, 0
  br i1 %11, label %Vec_StrFree.exit, label %12

12:                                               ; preds = %8
  %13 = tail call i32 @strncmp(ptr noundef nonnull dereferenceable(1) %9, ptr noundef nonnull dereferenceable(7) @.str.3, i64 noundef 6) #13
  %14 = icmp ne i32 %13, 0
  %spec.select = sext i1 %14 to i32
  br label %Vec_StrFree.exit

Vec_StrFree.exit:                                 ; preds = %12, %8, %5
  %.010 = phi i32 [ -1, %5 ], [ 1, %8 ], [ %spec.select, %12 ]
  tail call void @free(ptr noundef nonnull %.val) #16
  tail call void @free(ptr noundef nonnull %3) #16
  br label %15

15:                                               ; preds = %2, %Vec_StrFree.exit
  %.0 = phi i32 [ %.010, %Vec_StrFree.exit ], [ -1, %2 ]
  ret i32 %.0
}